target datalayout = "e-m:e-p270:32:32-p271:32:32-p272:64:64-i64:64-i128:128-f80:128-n8:16:32:64-S128"
target triple = "x86_64-pc-linux-gnu"

%"class.std::__cxx11::basic_string" = type { %"struct.std::__cxx11::basic_string<char>::_Alloc_hider", i64, %union.anon }
%"struct.std::__cxx11::basic_string<char>::_Alloc_hider" = type { ptr }
%union.anon = type { i64, [8 x i8] }
%"struct.std::_Vector_base" = type { %"struct.std::_Vector_base<jsonnet::internal::FodderElement, std::allocator<jsonnet::internal::FodderElement>>::_Vector_impl" }
%"struct.std::_Vector_base<jsonnet::internal::FodderElement, std::allocator<jsonnet::internal::FodderElement>>::_Vector_impl" = type { %"struct.std::_Vector_base<jsonnet::internal::FodderElement, std::allocator<jsonnet::internal::FodderElement>>::_Vector_impl_data" }
%"struct.std::_Vector_base<jsonnet::internal::FodderElement, std::allocator<jsonnet::internal::FodderElement>>::_Vector_impl_data" = type { ptr, ptr, ptr }
%"class.std::vector" = type { %"struct.std::_Vector_base" }
%"struct.std::_Vector_base.26" = type { %"struct.std::_Vector_base<jsonnet::internal::ArgParam, std::allocator<jsonnet::internal::ArgParam>>::_Vector_impl" }
%"struct.std::_Vector_base<jsonnet::internal::ArgParam, std::allocator<jsonnet::internal::ArgParam>>::_Vector_impl" = type { %"struct.std::_Vector_base<jsonnet::internal::ArgParam, std::allocator<jsonnet::internal::ArgParam>>::_Vector_impl_data" }
%"struct.std::_Vector_base<jsonnet::internal::ArgParam, std::allocator<jsonnet::internal::ArgParam>>::_Vector_impl_data" = type { ptr, ptr, ptr }
%"struct.jsonnet::internal::LocationRange" = type { %"class.std::__cxx11::basic_string", %"struct.jsonnet::internal::Location", %"struct.jsonnet::internal::Location" }
%"struct.jsonnet::internal::Location" = type { i64, i64 }
%"class.std::vector.25" = type { %"struct.std::_Vector_base.26" }
%"struct.jsonnet::internal::AST" = type { ptr, %"struct.jsonnet::internal::LocationRange", i32, %"class.std::vector", %"class.std::vector.40" }
%"class.std::vector.40" = type { %"struct.std::_Vector_base.41" }
%"struct.std::_Vector_base.41" = type { %"struct.std::_Vector_base<const jsonnet::internal::Identifier *, std::allocator<const jsonnet::internal::Identifier *>>::_Vector_impl" }
%"struct.std::_Vector_base<const jsonnet::internal::Identifier *, std::allocator<const jsonnet::internal::Identifier *>>::_Vector_impl" = type { %"struct.std::_Vector_base<const jsonnet::internal::Identifier *, std::allocator<const jsonnet::internal::Identifier *>>::_Vector_impl_data" }
%"struct.std::_Vector_base<const jsonnet::internal::Identifier *, std::allocator<const jsonnet::internal::Identifier *>>::_Vector_impl_data" = type { ptr, ptr, ptr }
%"struct.jsonnet::internal::Function" = type { %"struct.jsonnet::internal::AST", %"class.std::vector", %"class.std::vector.25", i8, %"class.std::vector", ptr }

; Function Attrs: mustprogress uwtable
define void @_ZN7jsonnet8internal12CompilerPass5visitEPNS0_8FunctionE(ptr noundef nonnull align 8 dereferenceable(16) %0, ptr noundef %1) unnamed_addr #4 align 2 {
  %3 = alloca ptr, align 8
  %4 = alloca ptr, align 8
  store ptr %0, ptr %3, align 8, !tbaa !21
  store ptr %1, ptr %4, align 8, !tbaa !128
  %5 = load ptr, ptr %3, align 8
  %6 = load ptr, ptr %4, align 8, !tbaa !128
  %7 = getelementptr inbounds nuw %"struct.jsonnet::internal::Function", ptr %6, i32 0, i32 1
  %8 = load ptr, ptr %4, align 8, !tbaa !128
  %9 = getelementptr inbounds nuw %"struct.jsonnet::internal::Function", ptr %8, i32 0, i32 2
  %10 = load ptr, ptr %4, align 8, !tbaa !128
  %11 = getelementptr inbounds nuw %"struct.jsonnet::internal::Function", ptr %10, i32 0, i32 4
  %12 = load ptr, ptr %5, align 8, !tbaa !27
  %13 = getelementptr inbounds ptr, ptr %12, i64 3
  %14 = load ptr, ptr %13, align 8
  call void %14(ptr noundef nonnull align 8 dereferenceable(16) %5, ptr noundef nonnull align 8 dereferenceable(24) %7, ptr noundef nonnull align 8 dereferenceable(24) %9, ptr noundef nonnull align 8 dereferenceable(24) %11)
  %15 = load ptr, ptr %4, align 8, !tbaa !128
  %16 = getelementptr inbounds nuw %"struct.jsonnet::internal::Function", ptr %15, i32 0, i32 5
  %17 = load ptr, ptr %5, align 8, !tbaa !27
  %18 = getelementptr inbounds ptr, ptr %17, i64 6
  %19 = load ptr, ptr %18, align 8
  call void %19(ptr noundef nonnull align 8 dereferenceable(16) %5, ptr noundef nonnull align 8 dereferenceable(8) %16)
  ret void
}